(lp0
(VJean Shafiroff
p1
cnumpy.core.multiarray
scalar
p2
(cnumpy
dtype
p3
(S'f8'
p4
I0
I1
tp5
Rp6
(I3
S'<'
p7
NNNI-1
I-1
I0
tp8
bS'\x88P\x15\xf9\x12\x0fE?'
p9
tp10
Rp11
tp12
a(VMark Gilbertson
p13
g2
(g6
S'\x00xQ%\x90\x92@?'
p14
tp15
Rp16
tp17
a(VGillian Miniter
p18
g2
(g6
S'a}k[;L=?'
p19
tp20
Rp21
tp22
a(VGeoffrey Bradfield
p23
g2
(g6
S'RF\xde\x04\x1d"8?'
p24
tp25
Rp26
tp27
a(VAlexandra Lebenthal
p28
g2
(g6
S"\x01y<c\x17'6?"
p29
tp30
Rp31
tp32
a(VAndrew Saffir
p33
g2
(g6
S'\xb5\xd3\x95Dn\xe85?'
p34
tp35
Rp36
tp37
a(VSharon Bush
p38
g2
(g6
S'Xn$m\xda84?'
p39
tp40
Rp41
tp42
a(VYaz Hernandez
p43
g2
(g6
S'.\x03*\x07\xdc\xda3?'
p44
tp45
Rp46
tp47
a(VMario Buatta
p48
g2
(g6
S'\x9b\xe9\xe7\xc7n83?'
p49
tp50
Rp51
tp52
a(VSomers Farkas
p53
g2
(g6
S'\x15!}\xcf^\xcb2?'
p54
tp55
Rp56
tp57
a(VDebbie Bancroft
p58
g2
(g6
S'Q\x18\x904n\x812?'
p59
tp60
Rp61
tp62
a(VAlina Cho
p63
g2
(g6
S'\x83\xcc\xc6\xdc9\xb01?'
p64
tp65
Rp66
tp67
a(VKamie Lightburn
p68
g2
(g6
S'\xae\x97L\xab{\x9f1?'
p69
tp70
Rp71
tp72
a(VMichael Bloomberg
p73
g2
(g6
S'\x95\xfdgs\x8c;1?'
p74
tp75
Rp76
tp77
a(VEleanora Kennedy
p78
g2
(g6
S'<\xe2d6\xb4\xcd0?'
p79
tp80
Rp81
tp82
a(VBarbara Tober
p83
g2
(g6
S'\xd6\x82\xb4\x96\xe8\x8a0?'
p84
tp85
Rp86
tp87
a(VLucia Hwong Gordon
p88
g2
(g6
S'\x10\x95\xe6H\xf8n0?'
p89
tp90
Rp91
tp92
a(VRob Rich
p93
g2
(g6
S'\x83\x8e\xf4\xfa\xe0`0?'
p94
tp95
Rp96
tp97
a(VBonnie Comley
p98
g2
(g6
S'\\|;\x04\xd5?0?'
p99
tp100
Rp101
tp102
a(VChristopher Hyland
p103
g2
(g6
S'_\t\x05"\xda\x050?'
p104
tp105
Rp106
tp107
a(VElizabeth Stribling
p108
g2
(g6
S'\xccd\x82$\xb7\xe0,?'
p109
tp110
Rp111
tp112
a(VJamee Gregory
p113
g2
(g6
S'\xef\x9an\xe4\xc6\xd7,?'
p114
tp115
Rp116
tp117
a(VMuffie Potter Aston
p118
g2
(g6
S'\xf2\xb4\x90\x82\xb4\x91,?'
p119
tp120
Rp121
tp122
a(VBettina Zilkha
p123
g2
(g6
S'\xf9\xa9\xbf3O],?'
p124
tp125
Rp126
tp127
a(VDonna Karan
p128
g2
(g6
S'H\x95:\xa5\x00K+?'
p129
tp130
Rp131
tp132
a(VLydia Fenet
p133
g2
(g6
S'\xbd\x1b)\xa7{G+?'
p134
tp135
Rp136
tp137
a(VCutty McGill
p138
g2
(g6
S'\x11\xc2\xd8\xd8\xfc\x05+?'
p139
tp140
Rp141
tp142
a(VAllison Aston
p143
g2
(g6
S'\xdbg\xfd\x1cs\xf5)?'
p144
tp145
Rp146
tp147
a(VMartha Stewart
p148
g2
(g6
S'\xdf3W`g\xea)?'
p149
tp150
Rp151
tp152
a(VFernanda Kellogg
p153
g2
(g6
S'qm\x0f\x9dr\xc8)?'
p154
tp155
Rp156
tp157
a(VKaren LeFrak
p158
g2
(g6
S'\xb3\n\x98&\x94\xb1)?'
p159
tp160
Rp161
tp162
a(VAmy Fine Collins
p163
g2
(g6
S'\x18C-&\x0ex)?'
p164
tp165
Rp166
tp167
a(VMichele Herbert
p168
g2
(g6
S'\x0b\x9e\x0c\xf6\n\x1b)?'
p169
tp170
Rp171
tp172
a(VRussell Simmons
p173
g2
(g6
S'\xd0\xa7[\x9e_\x19)?'
p174
tp175
Rp176
tp177
a(VDeborah Norville
p178
g2
(g6
S'$\x93qm\x86\xf9(?'
p179
tp180
Rp181
tp182
a(VKaren Klopp
p183
g2
(g6
S'\x8c<^\xe4d\xaa(?'
p184
tp185
Rp186
tp187
a(VDaniel Benedict
p188
g2
(g6
S'\xe4\x880\xabwa(?'
p189
tp190
Rp191
tp192
a(VStewart Lane
p193
g2
(g6
S'hu\xcd\x0f\xeeU(?'
p194
tp195
Rp196
tp197
a(VKipton Cronkite
p198
g2
(g6
S' \xdf\xaf\x07\xf4\x11(?'
p199
tp200
Rp201
tp202
a(VAlec Baldwin
p203
g2
(g6
S'N6\x07"k\xfb\'?'
p204
tp205
Rp206
tp207
a(VDiana Taylor
p208
g2
(g6
S"e\xcd\xa7W\xce\xf7'?"
p209
tp210
Rp211
tp212
a(VAnnie Watt
p213
g2
(g6
S"9z'\x1f\xc5\xba'?"
p214
tp215
Rp216
tp217
a(VDennis Basso
p218
g2
(g6
S"\xb3\x99g\xfd\xb9\xaf'?"
p219
tp220
Rp221
tp222
a(VNicole Miller
p223
g2
(g6
S"\xdc\xf7\xe0iN\x8a'?"
p224
tp225
Rp226
tp227
a(VDayssi Olarte
p228
g2
(g6
S"%\x1b\xba,\xde~'?"
p229
tp230
Rp231
tp232
a(VGrace Meigher
p233
g2
(g6
S"\x83f]\xd2\x98r'?"
p234
tp235
Rp236
tp237
a(VMargo Langenberg
p238
g2
(g6
S"'e-V}\xde&?"
p239
tp240
Rp241
tp242
a(VDawne Marie Grannum
p243
g2
(g6
S'\xafq\x17\xd0\x0e\xbd&?'
p244
tp245
Rp246
tp247
a(VEvelyn Lauder
p248
g2
(g6
S'\x9f\xdbN\xb0u\x8a&?'
p249
tp250
Rp251
tp252
a(VAnka Palitz
p253
g2
(g6
S'z8`\xf97C&?'
p254
tp255
Rp256
tp257
a(VLiliana Cavendish
p258
g2
(g6
S'6\x96Y\xf0rB&?'
p259
tp260
Rp261
tp262
a(VAnnette Rickel
p263
g2
(g6
S'|s_\xe9\xfd\xf2%?'
p264
tp265
Rp266
tp267
a(VAmy McFarland
p268
g2
(g6
S'\n`\xde\xb9{\xf2%?'
p269
tp270
Rp271
tp272
a(VSteven Stolman
p273
g2
(g6
S'P50f9\xf1%?'
p274
tp275
Rp276
tp277
a(VLeonard Lauder
p278
g2
(g6
S'\xbf\x81\\\xd7\x08\xe9%?'
p279
tp280
Rp281
tp282
a(VBarbara Regna
p283
g2
(g6
S'\xafxFQ\xef\xe7%?'
p284
tp285
Rp286
tp287
a(VCouri Hay
p288
g2
(g6
S'Ju\xeb\xe0\xea\xdf%?'
p289
tp290
Rp291
tp292
a(VPaula Zahn
p293
g2
(g6
S'\xc3\xc8y\xff\xe8\xc1%?'
p294
tp295
Rp296
tp297
a(VRichard Johnson
p298
g2
(g6
S'\x92bw\xef~\xb7%?'
p299
tp300
Rp301
tp302
a(VPrince Dimitri
p303
g2
(g6
S'\x12\xb2\t\xa5\xe7i%?'
p304
tp305
Rp306
tp307
a(VTory Burch
p308
g2
(g6
S'M\xa3\xb9\x9b\xe5\x15%?'
p309
tp310
Rp311
tp312
a(VRoric Tobin
p313
g2
(g6
S'A\xab\xd08\x05\x0e%?'
p314
tp315
Rp316
tp317
a(VLiz Peek
p318
g2
(g6
S'\xa1d$r{\x05%?'
p319
tp320
Rp321
tp322
a(VAmy Hoadley
p323
g2
(g6
S'\xe9\x86\xce\xc2}\x04%?'
p324
tp325
Rp326
tp327
a(VGeorgina Schaeffer
p328
g2
(g6
S'X\xf7\xb0v\xcc\xfc$?'
p329
tp330
Rp331
tp332
a(VBette Midler
p333
g2
(g6
S'\x94\xd0\xb8!\xba\xe1$?'
p334
tp335
Rp336
tp337
a(VAudrey Gruss
p338
g2
(g6
S'\t\xc72\xdbL\xa9$?'
p339
tp340
Rp341
tp342
a(VFelicia Taylor
p343
g2
(g6
S'\x18Y\xbb\x0e\xda\x8e$?'
p344
tp345
Rp346
tp347
a(VFe Fendi
p348
g2
(g6
S"_\xdd'0\x8a\x81$?"
p349
tp350
Rp351
tp352
a(VRosanna Scotto
p353
g2
(g6
S'u\x89\x8d\xff\xc6l$?'
p354
tp355
Rp356
tp357
a(VJennifer Creel
p358
g2
(g6
S'\xed\x9c \xf3\xe9A$?'
p359
tp360
Rp361
tp362
a(VJanna Bullock
p363
g2
(g6
S'|\x8az\xfa\xa5&$?'
p364
tp365
Rp366
tp367
a(VSusan Shin
p368
g2
(g6
S'\t9\xc8\x821\x00$?'
p369
tp370
Rp371
tp372
a(VFern Mallis
p373
g2
(g6
S'\x97}\xb5\xea\xc6\xe2#?'
p374
tp375
Rp376
tp377
a(VCoco Kopelman
p378
g2
(g6
S'\xa4\xc2\xf13m\xa0#?'
p379
tp380
Rp381
tp382
a(VChuck Scarborough
p383
g2
(g6
S'a\x10h-\xe2|#?'
p384
tp385
Rp386
tp387
a(VMichele Gerber Klein
p388
g2
(g6
S'\xcc\x86\xf4L\x9cx#?'
p389
tp390
Rp391
tp392
a(VLisa Anastos
p393
g2
(g6
S'\xb3\xc9T^zg#?'
p394
tp395
Rp396
tp397
a(VBeth Rudin DeWoody
p398
g2
(g6
S'L\xe9e\x83\x18\t#?'
p399
tp400
Rp401
tp402
a(VAgnes Gund
p403
g2
(g6
S'\x86\xf7#6\x96\xca"?'
p404
tp405
Rp406
tp407
a(VGregory Long
p408
g2
(g6
S'\xbb\x1a\x07\xe3\xa6p"?'
p409
tp410
Rp411
tp412
a(VCynthia Lufkin
p413
g2
(g6
S'\xedZ\x7f\x14\xdeV"?'
p414
tp415
Rp416
tp417
a(VKristian Laliberte
p418
g2
(g6
S'K\x81\xa56"8"?'
p419
tp420
Rp421
tp422
a(VBettina Prentice
p423
g2
(g6
S'R\xde\xbd\x0fH\xe8!?'
p424
tp425
Rp426
tp427
a(VJohn Demsey
p428
g2
(g6
S'\xfd6\x0fo7\xdf!?'
p429
tp430
Rp431
tp432
a(VAdelina Wong Ettelson
p433
g2
(g6
S'l\xa1>\xe4\n\xd2!?'
p434
tp435
Rp436
tp437
a(VCeCe Black
p438
g2
(g6
S'\xde\x88\xa0\xf8\x12\xca!?'
p439
tp440
Rp441
tp442
a(VHunt Slonem
p443
g2
(g6
S'1\x9b\r\x03T\xc9!?'
p444
tp445
Rp446
tp447
a(VNathalie Kaplan
p448
g2
(g6
S'\xd0\xbc\xfe}\xf0\xb1!?'
p449
tp450
Rp451
tp452
a(VConsul General
p453
g2
(g6
S'Rk\x95\xf8\x8d\xaa!?'
p454
tp455
Rp456
tp457
a(VMargo Catsimatidis
p458
g2
(g6
S'\xffo<H\xc4\xa2!?'
p459
tp460
Rp461
tp462
a(VJamie Niven
p463
g2
(g6
S'\xe2M\xedz\xc1\xa0!?'
p464
tp465
Rp466
tp467
a(VMary Davidson
p468
g2
(g6
S'\xab\x0b\x8e\x8c\x93\x9f!?'
p469
tp470
Rp471
tp472
a(VHeather Leeds
p473
g2
(g6
S'\xce\x88\xdf\xac{\x9b!?'
p474
tp475
Rp476
tp477
a(VCassandra Seidenfeld
p478
g2
(g6
S'\xa4\xbaP\xb8%|!?'
p479
tp480
Rp481
tp482
a(VPatricia Shiah
p483
g2
(g6
S'\x01\xf2|\xdc\x90q!?'
p484
tp485
Rp486
tp487
a(VSylvester Miniter
p488
g2
(g6
S'\n\xefV\xe1wn!?'
p489
tp490
Rp491
tp492
a(VTina Brown
p493
g2
(g6
S'\x03\x8e\xe1\x04\xb1m!?'
p494
tp495
Rp496
tp497
a(VJill Zarin
p498
g2
(g6
S'MR\xac\xd1%J!?'
p499
tp500
Rp501
tp502
a(VEdward Callaghan
p503
g2
(g6
S'2$\x93\xe9D(!?'
p504
tp505
Rp506
tp507
a.