(lp0
(VJean Shafiroff
p1
cnumpy.core.multiarray
scalar
p2
(cnumpy
dtype
p3
(S'f8'
p4
I0
I1
tp5
Rp6
(I3
S'<'
p7
NNNI-1
I-1
I0
tp8
bS'\xd1e\r\xea\xbe\x06E?'
p9
tp10
Rp11
tp12
a(VPatrick McMullan
p13
g2
(g6
S'\x8f\x9b\xbc\xc3\xbbvA?'
p14
tp15
Rp16
tp17
a(VMark Gilbertson
p18
g2
(g6
S'E\x17E\xa1\x1c\x8a@?'
p19
tp20
Rp21
tp22
a(VGillian Miniter
p23
g2
(g6
S'J\xb6NahE=?'
p24
tp25
Rp26
tp27
a(VGeoffrey Bradfield
p28
g2
(g6
S'\xbe\xab\x7f\xc88\n8?'
p29
tp30
Rp31
tp32
a(VAlexandra Lebenthal
p33
g2
(g6
S'\xac\x00F\xf3\xf1\x1e6?'
p34
tp35
Rp36
tp37
a(VAndrew Saffir
p38
g2
(g6
S'0`^\xf6\xed\xec5?'
p39
tp40
Rp41
tp42
a(VSharon Bush
p43
g2
(g6
S'\xb7\xbb\xe5UF=4?'
p44
tp45
Rp46
tp47
a(VYaz Hernandez
p48
g2
(g6
S'\xf4\x80t(^\xdc3?'
p49
tp50
Rp51
tp52
a(VMario Buatta
p53
g2
(g6
S'5\xd1 \xa5\xe713?'
p54
tp55
Rp56
tp57
a(VSomers Farkas
p58
g2
(g6
S'\n0\x87\r\xd0\xc32?'
p59
tp60
Rp61
tp62
a(VDebbie Bancroft
p63
g2
(g6
S'\x84\xc9\x02\x9e\xb4\x892?'
p64
tp65
Rp66
tp67
a(VAlina Cho
p68
g2
(g6
S'\x19\xd8G\xc6\x9b\xa81?'
p69
tp70
Rp71
tp72
a(VKamie Lightburn
p73
g2
(g6
S'z\xd0A\xd3\xa2\x991?'
p74
tp75
Rp76
tp77
a(VMichael Bloomberg
p78
g2
(g6
S'xd\xc1\xd0]61?'
p79
tp80
Rp81
tp82
a(VEleanora Kennedy
p83
g2
(g6
S'\xa3\xe0\xa6\xba\xc5\xc30?'
p84
tp85
Rp86
tp87
a(VBarbara Tober
p88
g2
(g6
S'\xa8\xad\xb1\x1f\x9e\x890?'
p89
tp90
Rp91
tp92
a(VLucia Hwong Gordon
p93
g2
(g6
S'\xe5P$\xda\x1ee0?'
p94
tp95
Rp96
tp97
a(VBonnie Comley
p98
g2
(g6
S'\xc6N\xcc.]<0?'
p99
tp100
Rp101
tp102
a(VRob Rich
p103
g2
(g6
S'\xf4\xfeZ\x14p#0?'
p104
tp105
Rp106
tp107
a(VChristopher Hyland
p108
g2
(g6
S'\xaa\x9d\xbf\x01\xbf\x020?'
p109
tp110
Rp111
tp112
a(VBettina Zilkha
p113
g2
(g6
S'v\xc0\xf9\xbd\xb9\xd8,?'
p114
tp115
Rp116
tp117
a(VElizabeth Stribling
p118
g2
(g6
S'\xb4\xba\x16\x96\x9b\xd4,?'
p119
tp120
Rp121
tp122
a(VJamee Gregory
p123
g2
(g6
S'\xb4f\xae\xae=\xca,?'
p124
tp125
Rp126
tp127
a(VMuffie Potter Aston
p128
g2
(g6
S'\xccV\x1d\xefj\x82,?'
p129
tp130
Rp131
tp132
a(VDonna Karan
p133
g2
(g6
S'x\x80|\x8a\xcdC+?'
p134
tp135
Rp136
tp137
a(VLydia Fenet
p138
g2
(g6
S'\xb6\xd0h6\xce>+?'
p139
tp140
Rp141
tp142
a(VCutty McGill
p143
g2
(g6
S'z\t\x98j\x9c\xfe)?'
p144
tp145
Rp146
tp147
a(VMartha Stewart
p148
g2
(g6
S'\xdc\xcc\x1f\xa7+\xfa)?'
p149
tp150
Rp151
tp152
a(VAllison Aston
p153
g2
(g6
S'\x077\xba\xeeB\xeb)?'
p154
tp155
Rp156
tp157
a(VFernanda Kellogg
p158
g2
(g6
S"\xec\xf4'\xd5p\xc3)?"
p159
tp160
Rp161
tp162
a(VKaren LeFrak
p163
g2
(g6
S'f\xb9R1\x86\x9f)?'
p164
tp165
Rp166
tp167
a(VAmy Fine Collins
p168
g2
(g6
S"\x87\x87'QHk)?"
p169
tp170
Rp171
tp172
a(VDeborah Norville
p173
g2
(g6
S'-\xc0\x97\\\x0b\x1f)?'
p174
tp175
Rp176
tp177
a(VMichele Herbert
p178
g2
(g6
S'\xdd&}\x10\xc5\x0c)?'
p179
tp180
Rp181
tp182
a(VRussell Simmons
p183
g2
(g6
S'*F\xa4\xfay\xfa(?'
p184
tp185
Rp186
tp187
a(VKaren Klopp
p188
g2
(g6
S'kg\x17\x11\xbe\x9f(?'
p189
tp190
Rp191
tp192
a(VDaniel Benedict
p193
g2
(g6
S'\x0e-\xe5\xdb\xad_(?'
p194
tp195
Rp196
tp197
a(VStewart Lane
p198
g2
(g6
S'\x96\xf5\x89P\xbdP(?'
p199
tp200
Rp201
tp202
a(VKipton Cronkite
p203
g2
(g6
S'}\x80N\xc5\x91\x06(?'
p204
tp205
Rp206
tp207
a(VAlec Baldwin
p208
g2
(g6
S"\xd5x\x177w\xf0'?"
p209
tp210
Rp211
tp212
a(VDiana Taylor
p213
g2
(g6
S"\xeaf\xd9 S\xe4'?"
p214
tp215
Rp216
tp217
a(VDennis Basso
p218
g2
(g6
S"\x1c\xf9\x1am\xfc\xa4'?"
p219
tp220
Rp221
tp222
a(VAnnie Watt
p223
g2
(g6
S"t\xe3\x05\x9ab\x84'?"
p224
tp225
Rp226
tp227
a(VDayssi Olarte
p228
g2
(g6
S"X\xf7\x9dp\xe5\x83'?"
p229
tp230
Rp231
tp232
a(VNicole Miller
p233
g2
(g6
S"K\xe3\x13\x95@\x7f'?"
p234
tp235
Rp236
tp237
a(VGrace Meigher
p238
g2
(g6
S"p\xc2\x9ax9j'?"
p239
tp240
Rp241
tp242
a(VMargo Langenberg
p243
g2
(g6
S'\x8b\x1906\xdf\xd5&?'
p244
tp245
Rp246
tp247
a(VDawne Marie Grannum
p248
g2
(g6
S'k\xe3E#N\xae&?'
p249
tp250
Rp251
tp252
a(VEvelyn Lauder
p253
g2
(g6
S'*\x1d\x08\xae\xe5\x82&?'
p254
tp255
Rp256
tp257
a(VAnka Palitz
p258
g2
(g6
S'\x97O\x8aK\xba<&?'
p259
tp260
Rp261
tp262
a(VLiliana Cavendish
p263
g2
(g6
S'\x93{\xac\xde\x152&?'
p264
tp265
Rp266
tp267
a(VAnnette Rickel
p268
g2
(g6
S'|^;?\x9a\xee%?'
p269
tp270
Rp271
tp272
a(VSteven Stolman
p273
g2
(g6
S'\xeb5\xe8G2\xee%?'
p274
tp275
Rp276
tp277
a(VLeonard Lauder
p278
g2
(g6
S'}pO\xb7\xdd\xdf%?'
p279
tp280
Rp281
tp282
a(VBarbara Regna
p283
g2
(g6
S'\x85\xd1\xfem"\xdd%?'
p284
tp285
Rp286
tp287
a(VCouri Hay
p288
g2
(g6
S'\xdfA\x80p\xd2\xd8%?'
p289
tp290
Rp291
tp292
a(VAmy McFarland
p293
g2
(g6
S'V\x05.(\xd0\xd6%?'
p294
tp295
Rp296
tp297
a(VRichard Johnson
p298
g2
(g6
S'\xb663,=\xc4%?'
p299
tp300
Rp301
tp302
a(VPaula Zahn
p303
g2
(g6
S'O!\xeb7\x0b\xbb%?'
p304
tp305
Rp306
tp307
a(VPrince Dimitri
p308
g2
(g6
S'#\x1d\xda\x03\x9ea%?'
p309
tp310
Rp311
tp312
a(VTory Burch
p313
g2
(g6
S'pD\xb3\xe9\x1c\x0e%?'
p314
tp315
Rp316
tp317
a(VLiz Peek
p318
g2
(g6
S'z~\xeb\xed\xe5\xfa$?'
p319
tp320
Rp321
tp322
a(VRoric Tobin
p323
g2
(g6
S'6\xf5\x9c\x05\xdb\xf9$?'
p324
tp325
Rp326
tp327
a(VAmy Hoadley
p328
g2
(g6
S'q\x03\x94\x87\x9b\xf9$?'
p329
tp330
Rp331
tp332
a(VGeorgina Schaeffer
p333
g2
(g6
S'0\x9bJ2#\xf5$?'
p334
tp335
Rp336
tp337
a(VBette Midler
p338
g2
(g6
S'\x8a\xe5\xe9\xf5\x96\xd8$?'
p339
tp340
Rp341
tp342
a(VAudrey Gruss
p343
g2
(g6
S'\x12i\xdbE\x89\xc3$?'
p344
tp345
Rp346
tp347
a(VFelicia Taylor
p348
g2
(g6
S'\x02\xc8w:\x07\x88$?'
p349
tp350
Rp351
tp352
a(VFe Fendi
p353
g2
(g6
S',\x14\x9c\xa8\xebr$?'
p354
tp355
Rp356
tp357
a(VRosanna Scotto
p358
g2
(g6
S'\xdf\xc1\xfc8?g$?'
p359
tp360
Rp361
tp362
a(VJennifer Creel
p363
g2
(g6
S'\x9e\xc2\x9c-\x0f9$?'
p364
tp365
Rp366
tp367
a(VJanna Bullock
p368
g2
(g6
S'\xeb3j\xcah\x1f$?'
p369
tp370
Rp371
tp372
a(VSusan Shin
p373
g2
(g6
S'\x96N\x9a\xef\xc9\xec#?'
p374
tp375
Rp376
tp377
a(VFern Mallis
p378
g2
(g6
S'\xca\x94\x06{\xea\xd3#?'
p379
tp380
Rp381
tp382
a(VCoco Kopelman
p383
g2
(g6
S' Ni\xae\xef\x9b#?'
p384
tp385
Rp386
tp387
a(VMichele Gerber Klein
p388
g2
(g6
S'\xde\x9d<\xf5Yq#?'
p389
tp390
Rp391
tp392
a(VChuck Scarborough
p393
g2
(g6
S'\xdc\xb4\xf7y\xd1n#?'
p394
tp395
Rp396
tp397
a(VLisa Anastos
p398
g2
(g6
S'\xde\xd95\xea>Z#?'
p399
tp400
Rp401
tp402
a(VBeth Rudin DeWoody
p403
g2
(g6
S'\xccR\xe7\xaee\x14#?'
p404
tp405
Rp406
tp407
a(VAgnes Gund
p408
g2
(g6
S'Gy\x0ev\xb0\xd6"?'
p409
tp410
Rp411
tp412
a(VGregory Long
p413
g2
(g6
S'y\xd7{\x88ok"?'
p414
tp415
Rp416
tp417
a(VCynthia Lufkin
p418
g2
(g6
S'?U\x8c\xb5\xcfP"?'
p419
tp420
Rp421
tp422
a(VKristian Laliberte
p423
g2
(g6
S'\xe2{xq\xe8\x1d"?'
p424
tp425
Rp426
tp427
a(VAdelina Wong Ettelson
p428
g2
(g6
S'\x8aS\xc3\x14\x8e\xe2!?'
p429
tp430
Rp431
tp432
a(VBettina Prentice
p433
g2
(g6
S'\x02\x9a/\rt\xdd!?'
p434
tp435
Rp436
tp437
a(VJohn Demsey
p438
g2
(g6
S'\xaa\xbe\xcd\x88\xc9\xd7!?'
p439
tp440
Rp441
tp442
a(VNathalie Kaplan
p443
g2
(g6
S'_\xc1\x00\xc0\xd2\xc6!?'
p444
tp445
Rp446
tp447
a(VCeCe Black
p448
g2
(g6
S'_g-\x99j\xbf!?'
p449
tp450
Rp451
tp452
a(VConsul General
p453
g2
(g6
S'x6\xe7&R\xa8!?'
p454
tp455
Rp456
tp457
a(VHunt Slonem
p458
g2
(g6
S'\xdbJ\xffR$\xa7!?'
p459
tp460
Rp461
tp462
a(VJamie Niven
p463
g2
(g6
S'{kWw\xa7\x9c!?'
p464
tp465
Rp466
tp467
a(VMary Davidson
p468
g2
(g6
S'\x9e\x17\x8b\xb3>\x9c!?'
p469
tp470
Rp471
tp472
a(VMargo Catsimatidis
p473
g2
(g6
S'\x13\xe7\xd2\x86\xc9\x95!?'
p474
tp475
Rp476
tp477
a(VHeather Leeds
p478
g2
(g6
S'\x1f\xdaP~\xc8\x94!?'
p479
tp480
Rp481
tp482
a(VCassandra Seidenfeld
p483
g2
(g6
S'\x83d\xd2\xe8yw!?'
p484
tp485
Rp486
tp487
a(VTina Brown
p488
g2
(g6
S'vf\x8aVqi!?'
p489
tp490
Rp491
tp492
a(VSylvester Miniter
p493
g2
(g6
S'\x9e3\xc8 Md!?'
p494
tp495
Rp496
tp497
a(VPatricia Shiah
p498
g2
(g6
S'\xa6\xde%\x8bGd!?'
p499
tp500
Rp501
tp502
a(VJill Zarin
p503
g2
(g6
S'p\x0cuc\x9bG!?'
p504
tp505
Rp506
tp507
a.