(lp0
(VJean Shafiroff
p1
cnumpy.core.multiarray
scalar
p2
(cnumpy
dtype
p3
(S'f8'
p4
I0
I1
tp5
Rp6
(I3
S'<'
p7
NNNI-1
I-1
I0
tp8
bS'n"\xc0\xf4\xf52D?'
p9
tp10
Rp11
tp12
a(VMark Gilbertson
p13
g2
(g6
S'=el\xb31\x92??'
p14
tp15
Rp16
tp17
a(VGillian Miniter
p18
g2
(g6
S'!$\xafp\xd8\xdf;?'
p19
tp20
Rp21
tp22
a(S'Annie Watt'
p23
g2
(g6
S'\xb3c\xb8\xfd\xb6T9?'
p24
tp25
Rp26
tp27
a(VGeoffrey Bradfield
p28
g2
(g6
S'\x12\xa3{@\xe1Z7?'
p29
tp30
Rp31
tp32
a(VAlexandra Lebenthal
p33
g2
(g6
S'W\xff\xe5b#d5?'
p34
tp35
Rp36
tp37
a(VAndrew Saffir
p38
g2
(g6
S'WD\xbc\xd2\xce"5?'
p39
tp40
Rp41
tp42
a(VRob Rich
p43
g2
(g6
S'\x9c\x9bg\xf8F\xca3?'
p44
tp45
Rp46
tp47
a(VSharon Bush
p48
g2
(g6
S'\xf5\xfd\xfan\x1c\xa53?'
p49
tp50
Rp51
tp52
a(VYaz Hernandez
p53
g2
(g6
S'\xeb\xc2\xac5\x14(3?'
p54
tp55
Rp56
tp57
a(VMario Buatta
p58
g2
(g6
S'\xe9\x0e\x18Q\x12y2?'
p59
tp60
Rp61
tp62
a(VSomers Farkas
p63
g2
(g6
S'1\x16\xccYZ 2?'
p64
tp65
Rp66
tp67
a(VDebbie Bancroft
p68
g2
(g6
S'\xc9Du\xcd\xa8\x961?'
p69
tp70
Rp71
tp72
a(VAlina Cho
p73
g2
(g6
S'K\xf9\xa7\x92\xf4\x101?'
p74
tp75
Rp76
tp77
a(VKamie Lightburn
p78
g2
(g6
S"@M'\xcc\xf2\xd50?"
p79
tp80
Rp81
tp82
a(VMichael Bloomberg
p83
g2
(g6
S'B\xbcP9\xbc\xbb0?'
p84
tp85
Rp86
tp87
a(VEleanora Kennedy
p88
g2
(g6
S'\xac\xb9\xc0\x9e\x88#0?'
p89
tp90
Rp91
tp92
a(VBarbara Tober
p93
g2
(g6
S'\xae\xe9\xfe\xd4\xfa\xa7/?'
p94
tp95
Rp96
tp97
a(VLucia Hwong Gordon
p98
g2
(g6
S'p\xe2\x19\x8b\xb8\x94/?'
p99
tp100
Rp101
tp102
a(VBonnie Comley
p103
g2
(g6
S'\xddO1\xeb\xab_/?'
p104
tp105
Rp106
tp107
a(VChristopher Hyland
p108
g2
(g6
S'\x9b\xd7"VC\r/?'
p109
tp110
Rp111
tp112
a(VCutty McGill
p113
g2
(g6
S'\x98\x9c\x1aZlP-?'
p114
tp115
Rp116
tp117
a(VElizabeth Stribling
p118
g2
(g6
S'>Z\x84d\xca\xe7+?'
p119
tp120
Rp121
tp122
a(VJamee Gregory
p123
g2
(g6
S':)\xfeqJ\xb3+?'
p124
tp125
Rp126
tp127
a(VDayssi Olarte
p128
g2
(g6
S'\xb3\x8e\xcfo\x06\x9a+?'
p129
tp130
Rp131
tp132
a(VMuffie Potter Aston
p133
g2
(g6
S'\x80O\x06\xa5\xae\x91+?'
p134
tp135
Rp136
tp137
a(VBettina Zilkha
p138
g2
(g6
S'e\xfbE\x9aW\x07+?'
p139
tp140
Rp141
tp142
a(VLydia Fenet
p143
g2
(g6
S'\xbd\x1c\xb25g\xea*?'
p144
tp145
Rp146
tp147
a(VDonna Karan
p148
g2
(g6
S'\xeb?&A^\xee)?'
p149
tp150
Rp151
tp152
a(VFernanda Kellogg
p153
g2
(g6
S'\xdc\xa4\xb2f\xd4O)?'
p154
tp155
Rp156
tp157
a(VAllison Aston
p158
g2
(g6
S'\xf0n\xbf6V\xec(?'
p159
tp160
Rp161
tp162
a(VKaren LeFrak
p163
g2
(g6
S'\xb8\xb6\xa9)M\xd3(?'
p164
tp165
Rp166
tp167
a(VMartha Stewart
p168
g2
(g6
S'Q\xccI\x10\xc3\xc0(?'
p169
tp170
Rp171
tp172
a(VAmy Fine Collins
p173
g2
(g6
S'+g-|\xd9=(?'
p174
tp175
Rp176
tp177
a(VRussell Simmons
p178
g2
(g6
S'sZ\xcf\x19\xd0+(?'
p179
tp180
Rp181
tp182
a(VDeborah Norville
p183
g2
(g6
S'\xf0\x97\xd1og\x0e(?'
p184
tp185
Rp186
tp187
a(VMichele Herbert
p188
g2
(g6
S"\xb4R\xaf3\xfd\xdf'?"
p189
tp190
Rp191
tp192
a(VKaren Klopp
p193
g2
(g6
S"+\x05S\t\x0e\xdf'?"
p194
tp195
Rp196
tp197
a(VDaniel Benedict
p198
g2
(g6
S"\xc2\x91\xd4\xdc\xb8\x9c'?"
p199
tp200
Rp201
tp202
a(VStewart Lane
p203
g2
(g6
S"\x9f\x8a\x86\r\x1f\x8c'?"
p204
tp205
Rp206
tp207
a(VAlec Baldwin
p208
g2
(g6
S"\x86k\x86\xfc\xbd>'?"
p209
tp210
Rp211
tp212
a(VKipton Cronkite
p213
g2
(g6
S"Y\xb1XG\x11#'?"
p214
tp215
Rp216
tp217
a(VNicole Miller
p218
g2
(g6
S'\xb3\xcf\xe5\xdd\xe0\xdb&?'
p219
tp220
Rp221
tp222
a(VDennis Basso
p223
g2
(g6
S'S\xa9\x17\xfc\x84\x8d&?'
p224
tp225
Rp226
tp227
a(VDiana Taylor
p228
g2
(g6
S'4\xcb\xca\xeaj\x85&?'
p229
tp230
Rp231
tp232
a(VGrace Meigher
p233
g2
(g6
S'K\xe5\xf3<j\x81&?'
p234
tp235
Rp236
tp237
a(VDawne Marie Grannum
p238
g2
(g6
S'\xda\xbd\x90x\x90\x0c&?'
p239
tp240
Rp241
tp242
a(VMargo Langenberg
p243
g2
(g6
S'@\x11\xee\xe3\x1d\xe4%?'
p244
tp245
Rp246
tp247
a(VLiliana Cavendish
p248
g2
(g6
S'\xf2\x94\xe1\n\xc3\xb1%?'
p249
tp250
Rp251
tp252
a(VEvelyn Lauder
p253
g2
(g6
S'\xedwFy\x14\x99%?'
p254
tp255
Rp256
tp257
a(VAnka Palitz
p258
g2
(g6
S'H\x15\x87hXp%?'
p259
tp260
Rp261
tp262
a(VLeonard Lauder
p263
g2
(g6
S'\x9c\xb4\x83\xcaL-%?'
p264
tp265
Rp266
tp267
a(VSteven Stolman
p268
g2
(g6
S'CW\xaf&\x0c\x0b%?'
p269
tp270
Rp271
tp272
a(VAnnette Rickel
p273
g2
(g6
S'O\xda\x18/Y\x02%?'
p274
tp275
Rp276
tp277
a(VPaula Zahn
p278
g2
(g6
S'P,\x96\x1a\xae\xfa$?'
p279
tp280
Rp281
tp282
a(VCouri Hay
p283
g2
(g6
S'\x0f\xebR\x84v\xf3$?'
p284
tp285
Rp286
tp287
a(VRichard Johnson
p288
g2
(g6
S'\x00\xbaRcl\xf2$?'
p289
tp290
Rp291
tp292
a(VBarbara Regna
p293
g2
(g6
S'\x17l\x19\x80o\xd6$?'
p294
tp295
Rp296
tp297
a(VTory Burch
p298
g2
(g6
S'\xb5\x9b\xfc\x880\xd0$?'
p299
tp300
Rp301
tp302
a(VPrince Dimitri
p303
g2
(g6
S' \xb6\xc8?\xeb\xc7$?'
p304
tp305
Rp306
tp307
a(VAmy McFarland
p308
g2
(g6
S'\x83\xcd\xc0t\xb2\xc6$?'
p309
tp310
Rp311
tp312
a(VAmy Hoadley
p313
g2
(g6
S'\xd1v=jra$?'
p314
tp315
Rp316
tp317
a(VRoric Tobin
p318
g2
(g6
S')\xe2^\xcd\xbcM$?'
p319
tp320
Rp321
tp322
a(VLiz Peek
p323
g2
(g6
S'W]\\mBG$?'
p324
tp325
Rp326
tp327
a(VBette Midler
p328
g2
(g6
S'\x8e1\x00\x92\xdf!$?'
p329
tp330
Rp331
tp332
a(VGeorgina Schaeffer
p333
g2
(g6
S'V\x90\xd1\xc0L\x1c$?'
p334
tp335
Rp336
tp337
a(VRosanna Scotto
p338
g2
(g6
S'Z28\xf3\xa0\x17$?'
p339
tp340
Rp341
tp342
a(VFe Fendi
p343
g2
(g6
S'lD\x12\xccL\xe9#?'
p344
tp345
Rp346
tp347
a(VAudrey Gruss
p348
g2
(g6
S'T\xed\xfd\xa2I\xcc#?'
p349
tp350
Rp351
tp352
a(VFelicia Taylor
p353
g2
(g6
S'\xbc\xb2\xe6|\x15\x8a#?'
p354
tp355
Rp356
tp357
a(VJennifer Creel
p358
g2
(g6
S'\x03\xbc\x00\x81\xe4\x86#?'
p359
tp360
Rp361
tp362
a(VJanna Bullock
p363
g2
(g6
S'\x9f/\xe4\xdb\xc9d#?'
p364
tp365
Rp366
tp367
a(VSusan Shin
p368
g2
(g6
S'\xe7\xc4l\x04z_#?'
p369
tp370
Rp371
tp372
a(VFern Mallis
p373
g2
(g6
S'\xcd\x89\xae\x97\xe8\xfc"?'
p374
tp375
Rp376
tp377
a(VLisa Anastos
p378
g2
(g6
S'\xa6\xd2"\xdbV\xdb"?'
p379
tp380
Rp381
tp382
a(VCoco Kopelman
p383
g2
(g6
S'\x17\xfay\x89y\xd2"?'
p384
tp385
Rp386
tp387
a(VChuck Scarborough
p388
g2
(g6
S'\xfa\n\xd6J\xfe\xc7"?'
p389
tp390
Rp391
tp392
a(VMichele Gerber Klein
p393
g2
(g6
S'\xe6\x08\'\xf5\x8e\x97"?'
p394
tp395
Rp396
tp397
a(VGregory Long
p398
g2
(g6
S'h\x822\xc78O"?'
p399
tp400
Rp401
tp402
a(VAgnes Gund
p403
g2
(g6
S'\xa6\xc6\x8c\xc4\xb6L"?'
p404
tp405
Rp406
tp407
a(VBeth Rudin DeWoody
p408
g2
(g6
S'Q4m\xdc\xdb,"?'
p409
tp410
Rp411
tp412
a(VKanavos
p413
g2
(g6
S'/\xc7\xf1\xa5\xce\xf3!?'
p414
tp415
Rp416
tp417
a(VConsul General
p418
g2
(g6
S'4U\x91o\xf2\xcc!?'
p419
tp420
Rp421
tp422
a(VAnn Watt
p423
g2
(g6
S'\xf2\xceT\xfd}\xa9!?'
p424
tp425
Rp426
tp427
a(VCynthia Lufkin
p428
g2
(g6
S"LdY\xa2'\x92!?"
p429
tp430
Rp431
tp432
a(VJohn Wegorzewski
p433
g2
(g6
S']l\xba-\xe3\x8f!?'
p434
tp435
Rp436
tp437
a(VKristian Laliberte
p438
g2
(g6
S'\xf2\x0e\xee\x04\x03q!?'
p439
tp440
Rp441
tp442
a(VHunt Slonem
p443
g2
(g6
S'\x19\x87\xfa\xe2\xfb>!?'
p444
tp445
Rp446
tp447
a(VMary Davidson
p448
g2
(g6
S'\x02\xfd\xa8A\x86:!?'
p449
tp450
Rp451
tp452
a(VJohn Demsey
p453
g2
(g6
S'\x1aL\r0\xb67!?'
p454
tp455
Rp456
tp457
a(VBettina Prentice
p458
g2
(g6
S'\xbd\x0f\x14=\xde\x1b!?'
p459
tp460
Rp461
tp462
a(VAdelina Wong Ettelson
p463
g2
(g6
S' \xbe\x10\xc7\xd4\x1b!?'
p464
tp465
Rp466
tp467
a(VJamie Niven
p468
g2
(g6
S'e\xa0w\xdf\xcf\x14!?'
p469
tp470
Rp471
tp472
a(VMary Hilliard
p473
g2
(g6
S'?5\x96\x8f>\n!?'
p474
tp475
Rp476
tp477
a(VCassandra Seidenfeld
p478
g2
(g6
S'\x8d\x80G\xb0a\x08!?'
p479
tp480
Rp481
tp482
a(VCeCe Black
p483
g2
(g6
S'\x10\x12\xde/X\x08!?'
p484
tp485
Rp486
tp487
a(VMargo Catsimatidis
p488
g2
(g6
S'\xa8\x99\xa5^d\xf3 ?'
p489
tp490
Rp491
tp492
a(VSylvester Miniter
p493
g2
(g6
S'<\xae\xd2\x95\x99\xea ?'
p494
tp495
Rp496
tp497
a(VNathalie Kaplan
p498
g2
(g6
S'\xc6\xdeH\x9ae\xe5 ?'
p499
tp500
Rp501
tp502
a(VHeather Leeds
p503
g2
(g6
S'\xdb\xd3w\x99\xa7\xca ?'
p504
tp505
Rp506
tp507
a.