(S'Asian'
p0
cnumpy.core.multiarray
scalar
p1
(cnumpy
dtype
p2
(S'f8'
p3
I0
I1
tp4
Rp5
(I3
S'<'
p6
NNNI-1
I-1
I0
tp7
bS'\xfd\x03;6\xbc\x14*@'
p8
tp9
Rp10
g1
(g5
S'\xfb\xcb\x86\xa0 \xd7\xde?'
p11
tp12
Rp13
g1
(g2
(S'i8'
p14
I0
I1
tp15
Rp16
(I3
S'<'
p17
NNNI-1
I-1
I0
tp18
bS'A\x01\x00\x00\x00\x00\x00\x00'
p19
tp20
Rp21
tp22
.