(lp0
((S'Japanese'
p1
S'Food worker does not use proper utensil to eliminate bare hand contact with food that will not receive adequate additional heat treatment."'
p2
tp3
cnumpy.core.multiarray
scalar
p4
(cnumpy
dtype
p5
(S'f8'
p6
I0
I1
tp7
Rp8
(I3
S'<'
p9
NNNI-1
I-1
I0
tp10
bS'\x93\xbe8\x16\xcc\x1f\n@'
p11
tp12
Rp13
g4
(g5
(S'i8'
p14
I0
I1
tp15
Rp16
(I3
S'<'
p17
NNNI-1
I-1
I0
tp18
bS'\x1d\x02\x00\x00\x00\x00\x00\x00'
p19
tp20
Rp21
tp22
a((S'Caf\xc3\xa9/Coffee/Tea'
p23
S'\xef\xbf\xbdChoking first aid\xef\xbf\xbd poster not posted. \xef\xbf\xbdAlcohol and pregnancy\xef\xbf\xbd warning sign not posted. Resuscitation equipment: exhaled air resuscitation masks (adult & pediatric), latex gloves, sign not posted. Inspection report sign not posted."'
p24
tp25
F3.1414818233282684
I175
tp26
a((S'Juice, Smoothies, Fruit Salads'
p27
S'Food Protection Certificate not held by supervisor of food operations."'
p28
tp29
g4
(g8
S'\xf4\x14\xc1\xe5z\x81\x08@'
p30
tp31
Rp32
g4
(g16
S'\x91\x00\x00\x00\x00\x00\x00\x00'
p33
tp34
Rp35
tp36
a((S'Donuts'
p37
S'Accurate thermometer not provided in refrigerated or hot holding equipment."'
p38
tp39
g4
(g8
S'\xc9\xda\xc1u\x82B\x08@'
p40
tp41
Rp42
g4
(g16
S'\x82\x00\x00\x00\x00\x00\x00\x00'
p43
tp44
Rp45
tp46
a((S'Ice Cream, Gelato, Yogurt, Ices'
p47
g28
tp48
g4
(g8
S'\x9a\x8e\xd1\xe3El\x07@'
p49
tp50
Rp51
g4
(g16
S'\xc1\x00\x00\x00\x00\x00\x00\x00'
p52
tp53
Rp54
tp55
a((S'Thai'
p56
S'Thawing procedures improper."'
p57
tp58
g4
(g8
S'>\x0bD\xa1\x0b2\x05@'
p59
tp60
Rp61
g4
(g16
S'\x97\x00\x00\x00\x00\x00\x00\x00'
p62
tp63
Rp64
tp65
a((S'Irish'
p66
S'Raw, cooked or prepared food is adulterated, contaminated, cross-contaminated, or not discarded in accordance with HACCP plan."'
p67
tp68
g4
(g8
S'.\xd8V\x07r\xf2\x02@'
p69
tp70
Rp71
g4
(g16
S'A\x01\x00\x00\x00\x00\x00\x00'
p72
tp73
Rp74
tp75
a((S'Mexican'
p76
S'Food not cooled by an approved method whereby the internal product temperature is reduced from 140\xef\xbf\xbd F to 70\xef\xbf\xbd F or less within 2 hours, and from 70\xef\xbf\xbd F to 41\xef\xbf\xbd F or less within 4 additional hours."'
p77
tp78
g4
(g8
S'\x18J\x14O\x16\xa3\x02@'
p79
tp80
Rp81
g4
(g16
S'\x04\x01\x00\x00\x00\x00\x00\x00'
p82
tp83
Rp84
tp85
a((S'Indian'
p86
g77
tp87
g4
(g8
S']\x91\xcb\x8d\x04,\x02@'
p88
tp89
Rp90
g4
(g16
S'p\x00\x00\x00\x00\x00\x00\x00'
p91
tp92
Rp93
tp94
a((S'Chinese'
p95
g57
tp96
g4
(g8
S'\x9d\xe0W\xa4\xaa\xb8\x01@'
p97
tp98
Rp99
g4
(g16
S'a\x04\x00\x00\x00\x00\x00\x00'
p100
tp101
Rp102
tp103
a((S'Caribbean'
p104
g77
tp105
g4
(g8
S'\xaf\xec\xbf\xb6A\xe8\x00@'
p106
tp107
Rp108
g4
(g16
S'\xce\x00\x00\x00\x00\x00\x00\x00'
p109
tp110
Rp111
tp112
a((g95
S'Food worker does not wash hands thoroughly after using the toilet, coughing, sneezing, smoking, eating, preparing raw foods or otherwise contaminating hands."'
p113
tp114
g4
(g8
S'\x910\x9d\xb6o\xd4\x00@'
p115
tp116
Rp117
g4
(g16
S'y\x00\x00\x00\x00\x00\x00\x00'
p118
tp119
Rp120
tp121
a((S'Hamburgers'
p122
g38
tp123
g4
(g8
S'?\x04\xfe7#\xac\x00@'
p124
tp125
Rp126
g4
(g16
S'm\x00\x00\x00\x00\x00\x00\x00'
p127
tp128
Rp129
tp130
a((S'American '
p131
S'""No Smoking\xef\xbf\xbd and/or \'Smoking Permitted\xef\xbf\xbd sign not conspicuously posted. Health warning not present on \'Smoking Permitted\xef\xbf\xbd"'
p132
tp133
g4
(g8
S'=Y"\xdf\x83\x9c\x00@'
p134
tp135
Rp136
g4
(g16
S'\xe3\x00\x00\x00\x00\x00\x00\x00'
p137
tp138
Rp139
tp140
a((S'Soups & Sandwiches'
p141
S'Cold food item held above 41\xef\xbf\xbd F (smoked fish and reduced oxygen packaged foods above 38 \xef\xbf\xbdF) except during necessary preparation."'
p142
tp143
g4
(g8
S'\xb3_\xd0=\xe5\x92\x00@'
p144
tp145
Rp146
g4
(g16
S'j\x00\x00\x00\x00\x00\x00\x00'
p147
tp148
Rp149
tp150
a((g37
S'Bulb not shielded or shatterproof, in areas where there is extreme heat, temperature changes, or where accidental contact may occur."'
p151
tp152
g4
(g8
S'{3\xb8\xdb/~\x00@'
p153
tp154
Rp155
g4
(g16
S'n\x00\x00\x00\x00\x00\x00\x00'
p156
tp157
Rp158
tp159
a((S'Middle Eastern'
p160
g28
tp161
g4
(g8
S'mU%S\xe0X\xff?'
p162
tp163
Rp164
g4
(g16
S'u\x00\x00\x00\x00\x00\x00\x00'
p165
tp166
Rp167
tp168
a((S'Spanish'
p169
g77
tp170
g4
(g8
S'\xe9=\xbaH_w\xfe?'
p171
tp172
Rp173
g4
(g16
S'\x97\x00\x00\x00\x00\x00\x00\x00'
p174
tp175
Rp176
tp177
a((g122
S'Filth flies or food/refuse/sewage-associated (FRSA) flies present in facility\xef\xbf\xbds food and/or non-food areas. Filth flies include house flies, little house flies, blow flies, bottle flies and flesh flies. Food/refuse/sewage-associated flies include fruit flies, drain flies and Phorid flies."'
p178
tp179
g4
(g8
S'2\x99&i\x1f-\xfe?'
p180
tp181
Rp182
g4
(g16
S'X\x02\x00\x00\x00\x00\x00\x00'
p183
tp184
Rp185
tp186
a((S'Caf\xc3\xa9/Coffee/Tea'
p187
S'Toilet facility not maintained and provided with toilet paper, waste receptacle and self-closing door."'
p188
tp189
F1.876847758271718
I315
tp190
a.