(lp0
((S'Chinese'
p1
S'Hot food item not held at or above 140\xef\xbf\xbd F."'
p2
tp3
cnumpy.core.multiarray
scalar
p4
(cnumpy
dtype
p5
(S'f8'
p6
I0
I1
tp7
Rp8
(I3
S'<'
p9
NNNI-1
I-1
I0
tp10
bS'~\xa2\xc2\xb5.\xc0\t@'
p11
tp12
Rp13
g4
(g5
(S'i8'
p14
I0
I1
tp15
Rp16
(I3
S'<'
p17
NNNI-1
I-1
I0
tp18
bS'y\x00\x00\x00\x00\x00\x00\x00'
p19
tp20
Rp21
tp22
a((g1
S'Food not protected from potential source of contamination during storage, preparation, transportation, display or service."'
p23
tp24
g4
(g8
S'\xc0\x1e\xb6\x86\xe8\xd1\x03@'
p25
tp26
Rp27
g4
(g16
S'\x86\x00\x00\x00\x00\x00\x00\x00'
p28
tp29
Rp30
tp31
a((g1
S'Cold food item held above 41\xef\xbf\xbd F (smoked fish and reduced oxygen packaged foods above 38 \xef\xbf\xbdF) except during necessary preparation."'
p32
tp33
g4
(g8
S'2\xc3\xeb}\x89\x02\x01@'
p34
tp35
Rp36
g4
(g16
S'\xc9\x00\x00\x00\x00\x00\x00\x00'
p37
tp38
Rp39
tp40
a((g1
S'Facility not vermin proof. Harborage or conditions conducive to attracting vermin to the premises and/or allowing vermin to exist."'
p41
tp42
g4
(g8
S't&\x000\x1b\xf0\x00@'
p43
tp44
Rp45
g4
(g16
S'\xb4\x00\x00\x00\x00\x00\x00\x00'
p46
tp47
Rp48
tp49
a((S'Latin (Cuban, Dominican, Puerto Rican, South & Central American)'
p50
S'Non-food contact surface improperly constructed. Unacceptable material used. Non-food contact surface or equipment improperly maintained and/or not properly sealed, raised, spaced or movable to allow accessibility for cleaning on all sides, above and underneath the unit."'
p51
tp52
g4
(g8
S'Nw\xd46P\x88\xfe?'
p53
tp54
Rp55
g4
(g16
S'\xb2\x00\x00\x00\x00\x00\x00\x00'
p56
tp57
Rp58
tp59
a((S'Bakery'
p60
g51
tp61
g4
(g8
S'Nw\xd46P\x88\xfe?'
p62
tp63
Rp64
g4
(g16
S'\x86\x00\x00\x00\x00\x00\x00\x00'
p65
tp66
Rp67
tp68
a((S'Spanish'
p69
g51
tp70
g4
(g8
S'Nw\xd46P\x88\xfe?'
p71
tp72
Rp73
g4
(g16
S'\x80\x00\x00\x00\x00\x00\x00\x00'
p74
tp75
Rp76
tp77
a((S'Sandwiches'
p78
g51
tp79
g4
(g8
S'Nw\xd46P\x88\xfe?'
p80
tp81
Rp82
g4
(g16
S'o\x00\x00\x00\x00\x00\x00\x00'
p83
tp84
Rp85
tp86
a((S'Mexican'
p87
g51
tp88
g4
(g8
S'Nw\xd46P\x88\xfe?'
p89
tp90
Rp91
g4
(g16
S'\x92\x00\x00\x00\x00\x00\x00\x00'
p92
tp93
Rp94
tp95
a((S'Pizza'
p96
g51
tp97
g4
(g8
S'Nw\xd46P\x88\xfe?'
p98
tp99
Rp100
g4
(g16
S'\xfe\x00\x00\x00\x00\x00\x00\x00'
p101
tp102
Rp103
tp104
a((S'Japanese'
p105
g51
tp106
g4
(g8
S'Nw\xd46P\x88\xfe?'
p107
tp108
Rp109
g4
(g16
S'\xa1\x00\x00\x00\x00\x00\x00\x00'
p110
tp111
Rp112
tp113
a((S'Italian'
p114
g51
tp115
g4
(g8
S'Nw\xd46P\x88\xfe?'
p116
tp117
Rp118
g4
(g16
S'\xb8\x00\x00\x00\x00\x00\x00\x00'
p119
tp120
Rp121
tp122
a((S'Ice Cream, Gelato, Yogurt, Ices'
p123
g51
tp124
g4
(g8
S'Nw\xd46P\x88\xfe?'
p125
tp126
Rp127
g4
(g16
S'j\x00\x00\x00\x00\x00\x00\x00'
p128
tp129
Rp130
tp131
a((S'Hamburgers'
p132
g51
tp133
g4
(g8
S'Nw\xd46P\x88\xfe?'
p134
tp135
Rp136
g4
(g16
S'\x98\x00\x00\x00\x00\x00\x00\x00'
p137
tp138
Rp139
tp140
a((S'Donuts'
p141
g51
tp142
g4
(g8
S'Nw\xd46P\x88\xfe?'
p143
tp144
Rp145
g4
(g16
S'\x83\x00\x00\x00\x00\x00\x00\x00'
p146
tp147
Rp148
tp149
a((S'Caribbean'
p150
g51
tp151
g4
(g8
S'Nw\xd46P\x88\xfe?'
p152
tp153
Rp154
g4
(g16
S'\x88\x00\x00\x00\x00\x00\x00\x00'
p155
tp156
Rp157
tp158
a((S'Caf\xc3\xa9/Coffee/Tea'
p159
S'Non-food contact surface improperly constructed. Unacceptable material used. Non-food contact surface or equipment improperly maintained and/or not properly sealed, raised, spaced or movable to allow accessibility for cleaning on all sides, above and underneath the unit."'
p160
tp161
F1.9082796232027763
I318
tp162
a((S'American '
p163
S'Sanitized equipment or utensil, including in-use food dispensing utensil, improperly used or stored."'
p164
tp165
g4
(g8
S'\r\x8fd\x0c\x8fd\xfc?'
p166
tp167
Rp168
g4
(g16
S'v\x00\x00\x00\x00\x00\x00\x00'
p169
tp170
Rp171
tp172
a((g163
S'Plumbing not properly installed or maintained; anti-siphonage or backflow prevention device not provided where required; equipment or floor not properly drained; sewage disposal system in disrepair or not functioning properly."'
p173
tp174
g4
(g8
S'\r\x8fd\x0c\x8fd\xfc?'
p175
tp176
Rp177
g4
(g16
S'e\x01\x00\x00\x00\x00\x00\x00'
p178
tp179
Rp180
tp181
a((g163
S'Food Protection Certificate not held by supervisor of food operations."'
p182
tp183
g4
(g8
S'\r\x8fd\x0c\x8fd\xfc?'
p184
tp185
Rp186
g4
(g16
S'h\x00\x00\x00\x00\x00\x00\x00'
p187
tp188
Rp189
tp190
a.